; ModuleID = '57/3236.c'
source_filename = "57/3236.c"
target datalayout = "e-m:e-p270:32:32-p271:32:32-p272:64:64-i64:64-f80:128-n8:16:32:64-S128"
target triple = "x86_64-pc-linux-gnu"

@.str = private unnamed_addr constant [3 x i8] c"%d\00", align 1
@.str.1 = private unnamed_addr constant [3 x i8] c"%s\00", align 1
@.str.2 = private unnamed_addr constant [3 x i8] c"er\00", align 1
@.str.3 = private unnamed_addr constant [3 x i8] c"ly\00", align 1
@.str.4 = private unnamed_addr constant [4 x i8] c"ing\00", align 1

; Function Attrs: noinline nounwind uwtable
define dso_local i32 @main() #0 {
  %1 = alloca i32, align 4
  %2 = alloca i32, align 4
  %3 = alloca i32, align 4
  %4 = alloca i32, align 4
  %5 = alloca i8*, align 8
  store i32 0, i32* %1, align 4
  %6 = call i32 (i8*, ...) @__isoc99_scanf(i8* getelementptr inbounds ([3 x i8], [3 x i8]* @.str, i64 0, i64 0), i32* %2)
  %7 = load i32, i32* %2, align 4
  %8 = mul nsw i32 %7, 32
  %9 = sext i32 %8 to i64
  %10 = mul i64 %9, 1
  %11 = call noalias i8* @malloc(i64 %10) #4
  store i8* %11, i8** %5, align 8
  store i32 0, i32* %3, align 4
  br label %12

12:                                               ; preds = %23, %0
  %13 = load i32, i32* %3, align 4
  %14 = load i32, i32* %2, align 4
  %15 = icmp slt i32 %13, %14
  br i1 %15, label %16, label %26

16:                                               ; preds = %12
  %17 = load i8*, i8** %5, align 8
  %18 = load i32, i32* %3, align 4
  %19 = mul nsw i32 %18, 32
  %20 = sext i32 %19 to i64
  %21 = getelementptr inbounds i8, i8* %17, i64 %20
  %22 = call i32 (i8*, ...) @__isoc99_scanf(i8* getelementptr inbounds ([3 x i8], [3 x i8]* @.str.1, i64 0, i64 0), i8* %21)
  br label %23

23:                                               ; preds = %16
  %24 = load i32, i32* %3, align 4
  %25 = add nsw i32 %24, 1
  store i32 %25, i32* %3, align 4
  br label %12

26:                                               ; preds = %12
  store i32 0, i32* %3, align 4
  br label %27

27:                                               ; preds = %91, %26
  %28 = load i32, i32* %3, align 4
  %29 = load i32, i32* %2, align 4
  %30 = icmp slt i32 %28, %29
  br i1 %30, label %31, label %94

31:                                               ; preds = %27
  store i32 0, i32* %4, align 4
  br label %32

32:                                               ; preds = %87, %31
  %33 = load i8*, i8** %5, align 8
  %34 = load i32, i32* %3, align 4
  %35 = mul nsw i32 32, %34
  %36 = sext i32 %35 to i64
  %37 = getelementptr inbounds i8, i8* %33, i64 %36
  %38 = load i32, i32* %4, align 4
  %39 = sext i32 %38 to i64
  %40 = getelementptr inbounds i8, i8* %37, i64 %39
  %41 = load i8, i8* %40, align 1
  %42 = sext i8 %41 to i32
  %43 = icmp ne i32 %42, 0
  br i1 %43, label %44, label %90

44:                                               ; preds = %32
  %45 = load i8*, i8** %5, align 8
  %46 = load i32, i32* %3, align 4
  %47 = mul nsw i32 32, %46
  %48 = sext i32 %47 to i64
  %49 = getelementptr inbounds i8, i8* %45, i64 %48
  %50 = load i32, i32* %4, align 4
  %51 = sext i32 %50 to i64
  %52 = getelementptr inbounds i8, i8* %49, i64 %51
  %53 = call i32 @strcmp(i8* %52, i8* getelementptr inbounds ([3 x i8], [3 x i8]* @.str.2, i64 0, i64 0)) #5
  %54 = icmp eq i32 %53, 0
  br i1 %54, label %77, label %55

55:                                               ; preds = %44
  %56 = load i8*, i8** %5, align 8
  %57 = load i32, i32* %3, align 4
  %58 = mul nsw i32 32, %57
  %59 = sext i32 %58 to i64
  %60 = getelementptr inbounds i8, i8* %56, i64 %59
  %61 = load i32, i32* %4, align 4
  %62 = sext i32 %61 to i64
  %63 = getelementptr inbounds i8, i8* %60, i64 %62
  %64 = call i32 @strcmp(i8* %63, i8* getelementptr inbounds ([3 x i8], [3 x i8]* @.str.3, i64 0, i64 0)) #5
  %65 = icmp eq i32 %64, 0
  br i1 %65, label %77, label %66

66:                                               ; preds = %55
  %67 = load i8*, i8** %5, align 8
  %68 = load i32, i32* %3, align 4
  %69 = mul nsw i32 32, %68
  %70 = sext i32 %69 to i64
  %71 = getelementptr inbounds i8, i8* %67, i64 %70
  %72 = load i32, i32* %4, align 4
  %73 = sext i32 %72 to i64
  %74 = getelementptr inbounds i8, i8* %71, i64 %73
  %75 = call i32 @strcmp(i8* %74, i8* getelementptr inbounds ([4 x i8], [4 x i8]* @.str.4, i64 0, i64 0)) #5
  %76 = icmp eq i32 %75, 0
  br i1 %76, label %77, label %86

77:                                               ; preds = %66, %55, %44
  %78 = load i8*, i8** %5, align 8
  %79 = load i32, i32* %3, align 4
  %80 = mul nsw i32 32, %79
  %81 = sext i32 %80 to i64
  %82 = getelementptr inbounds i8, i8* %78, i64 %81
  %83 = load i32, i32* %4, align 4
  %84 = sext i32 %83 to i64
  %85 = getelementptr inbounds i8, i8* %82, i64 %84
  store i8 0, i8* %85, align 1
  br label %90

86:                                               ; preds = %66
  br label %87

87:                                               ; preds = %86
  %88 = load i32, i32* %4, align 4
  %89 = add nsw i32 %88, 1
  store i32 %89, i32* %4, align 4
  br label %32

90:                                               ; preds = %77, %32
  br label %91

91:                                               ; preds = %90
  %92 = load i32, i32* %3, align 4
  %93 = add nsw i32 %92, 1
  store i32 %93, i32* %3, align 4
  br label %27

94:                                               ; preds = %27
  store i32 0, i32* %3, align 4
  br label %95

95:                                               ; preds = %106, %94
  %96 = load i32, i32* %3, align 4
  %97 = load i32, i32* %2, align 4
  %98 = icmp slt i32 %96, %97
  br i1 %98, label %99, label %109

99:                                               ; preds = %95
  %100 = load i8*, i8** %5, align 8
  %101 = load i32, i32* %3, align 4
  %102 = mul nsw i32 32, %101
  %103 = sext i32 %102 to i64
  %104 = getelementptr inbounds i8, i8* %100, i64 %103
  %105 = call i32 @puts(i8* %104)
  br label %106

106:                                              ; preds = %99
  %107 = load i32, i32* %3, align 4
  %108 = add nsw i32 %107, 1
  store i32 %108, i32* %3, align 4
  br label %95

109:                                              ; preds = %95
  ret i32 0
}

declare dso_local i32 @__isoc99_scanf(i8*, ...) #1

; Function Attrs: nounwind
declare dso_local noalias i8* @malloc(i64) #2

; Function Attrs: nounwind readonly
declare dso_local i32 @strcmp(i8*, i8*) #3

declare dso_local i32 @puts(i8*) #1


!llvm.module.flags = !{!0}
!llvm.ident = !{!1}

!0 = !{i32 1, !"wchar_size", i32 4}
!1 = !{!"clang version 10.0.0-4ubuntu1 "}
